; Function Attrs: mustprogress nounwind uwtable
define dso_local noundef ptr @_ZNK4llvm3opt12InputArgList16MakeArgStringRefENS_9StringRefE(ptr noundef nonnull align 8 dereferenceable(352) %0, ptr %1, i64 %2) unnamed_addr #0 align 2 {
  %4 = tail call noundef i32 @_ZNK4llvm3opt12InputArgList9MakeIndexENS_9StringRefE(ptr noundef nonnull align 8 dereferenceable(352) %0, ptr %1, i64 %2)
  %5 = getelementptr inbounds nuw i8, ptr %0, i64 176
  %6 = zext i32 %4 to i64
  %7 = load ptr, ptr %5, align 8
  %8 = getelementptr inbounds nuw ptr, ptr %7, i64 %6
  %9 = load ptr, ptr %8, align 8
  ret ptr %9
}